; Function Attrs: mustprogress uwtable
define dso_local void @_ZNK21cmLocalNinjaGenerator21GetLinkDependencyFileEP17cmGeneratorTargetRKNSt7__cxx1112basic_stringIcSt11char_traitsIcESaIcEEE(ptr dead_on_unwind noalias writable sret(%"class.std::__cxx11::basic_string") align 8 %0, ptr nocapture noundef nonnull readonly align 8 dereferenceable(952) %1, ptr noundef nonnull %2, ptr noundef nonnull align 8 dereferenceable(32) %3) unnamed_addr #3 align 2 personality ptr @__gxx_personality_v0 {
  %5 = alloca [3 x %"struct.std::pair.963"], align 8
  %6 = alloca %"class.std::__cxx11::basic_string", align 8
  %7 = alloca %"class.std::__cxx11::basic_string", align 8
  call void @_ZNK17cmGeneratorTarget19GetSupportDirectoryB5cxx11Ev(ptr dead_on_unwind nonnull writable sret(%"class.std::__cxx11::basic_string") align 8 %6, ptr noundef nonnull align 8 dereferenceable(2728) %2)
  %8 = getelementptr inbounds i8, ptr %1, i64 136
  %9 = load ptr, ptr %8, align 8
  %10 = load ptr, ptr %9, align 8
  %11 = getelementptr inbounds i8, ptr %10, i64 616
  %12 = load ptr, ptr %11, align 8
  invoke void %12(ptr dead_on_unwind nonnull writable sret(%"class.std::__cxx11::basic_string") align 8 %7, ptr noundef nonnull align 8 dereferenceable(2808) %9, ptr noundef nonnull align 8 dereferenceable(32) %3)
          to label %13 unwind label %26

13:                                               ; preds = %4
  call void @llvm.lifetime.start.p0(i64 72, ptr nonnull %5)
  call void @llvm.experimental.noalias.scope.decl(metadata !17)
  %14 = call { i64, ptr } @_ZNKSt7__cxx1112basic_stringIcSt11char_traitsIcESaIcEEcvSt17basic_string_viewIcS2_EEv(ptr noundef nonnull align 8 dereferenceable(32) %6) #22, !noalias !20
  %15 = extractvalue { i64, ptr } %14, 0
  %16 = extractvalue { i64, ptr } %14, 1
  store i64 %15, ptr %5, align 8, !alias.scope !17, !noalias !23
  %.sroa.2.0..sroa_idx.i.i = getelementptr inbounds i8, ptr %5, i64 8
  store ptr %16, ptr %.sroa.2.0..sroa_idx.i.i, align 8, !alias.scope !17, !noalias !23
  %17 = getelementptr inbounds i8, ptr %5, i64 16
  store ptr %6, ptr %17, align 8, !alias.scope !17, !noalias !23
  %18 = getelementptr inbounds i8, ptr %5, i64 24
  call void @llvm.experimental.noalias.scope.decl(metadata !24)
  %19 = call { i64, ptr } @_ZNKSt7__cxx1112basic_stringIcSt11char_traitsIcESaIcEEcvSt17basic_string_viewIcS2_EEv(ptr noundef nonnull align 8 dereferenceable(32) %7) #22, !noalias !27
  %20 = extractvalue { i64, ptr } %19, 0
  %21 = extractvalue { i64, ptr } %19, 1
  store i64 %20, ptr %18, align 8, !alias.scope !24, !noalias !23
  %.sroa.2.0..sroa_idx.i7.i = getelementptr inbounds i8, ptr %5, i64 32
  store ptr %21, ptr %.sroa.2.0..sroa_idx.i7.i, align 8, !alias.scope !24, !noalias !23
  %22 = getelementptr inbounds i8, ptr %5, i64 40
  store ptr %7, ptr %22, align 8, !alias.scope !24, !noalias !23
  %23 = getelementptr inbounds i8, ptr %5, i64 48
  store i64 7, ptr %23, align 8, !alias.scope !28, !noalias !23
  %.sroa.2.0..sroa_idx.i16.i = getelementptr inbounds i8, ptr %5, i64 56
  store ptr @.str.12, ptr %.sroa.2.0..sroa_idx.i16.i, align 8, !alias.scope !28, !noalias !23
  %24 = getelementptr inbounds i8, ptr %5, i64 64
  store ptr null, ptr %24, align 8, !alias.scope !28, !noalias !23
  invoke void @_Z10cmCatViewsSt16initializer_listISt4pairISt17basic_string_viewIcSt11char_traitsIcEEPNSt7__cxx1112basic_stringIcS3_SaIcEEEEE(ptr dead_on_unwind writable sret(%"class.std::__cxx11::basic_string") align 8 %0, ptr nonnull %5, i64 3)
          to label %25 unwind label %28

25:                                               ; preds = %13
  call void @llvm.lifetime.end.p0(i64 72, ptr nonnull %5)
  call void @_ZNSt7__cxx1112basic_stringIcSt11char_traitsIcESaIcEED1Ev(ptr noundef nonnull align 8 dereferenceable(32) %7) #22
  call void @_ZNSt7__cxx1112basic_stringIcSt11char_traitsIcESaIcEED1Ev(ptr noundef nonnull align 8 dereferenceable(32) %6) #22
  ret void

26:                                               ; preds = %4
  %27 = landingpad { ptr, i32 }
          cleanup
  br label %30

28:                                               ; preds = %13
  %29 = landingpad { ptr, i32 }
          cleanup
  call void @_ZNSt7__cxx1112basic_stringIcSt11char_traitsIcESaIcEED1Ev(ptr noundef nonnull align 8 dereferenceable(32) %7) #22
  br label %30

30:                                               ; preds = %28, %26
  %.pn = phi { ptr, i32 } [ %29, %28 ], [ %27, %26 ]
  call void @_ZNSt7__cxx1112basic_stringIcSt11char_traitsIcESaIcEED1Ev(ptr noundef nonnull align 8 dereferenceable(32) %6) #22
  resume { ptr, i32 } %.pn
}